target datalayout = "e-m:e-p270:32:32-p271:32:32-p272:64:64-i64:64-i128:128-f80:128-n8:16:32:64-S128"
target triple = "x86_64-pc-linux-gnu"

%struct.avifTransferCharacteristicsTable = type { i16, ptr, ptr, ptr }

; Function Attrs: nounwind uwtable
define hidden ptr @avifTransferCharacteristicsGetLinearToGammaFunction(i16 noundef zeroext %0) #0 {
  %2 = alloca ptr, align 8
  %3 = alloca i16, align 2
  %4 = alloca i32, align 4
  %5 = alloca ptr, align 8
  store i16 %0, ptr %3, align 2
  store i32 0, ptr %4, align 4
  br label %6

6:                                                ; preds = %25, %1
  %7 = load i32, ptr %4, align 4
  %8 = icmp slt i32 %7, 16
  br i1 %8, label %9, label %28

9:                                                ; preds = %6
  %10 = load i32, ptr %4, align 4
  %11 = sext i32 %10 to i64
  %12 = getelementptr inbounds [16 x %struct.avifTransferCharacteristicsTable], ptr @transferCharacteristicsTables, i64 0, i64 %11
  store ptr %12, ptr %5, align 8
  %13 = load ptr, ptr %5, align 8
  %14 = getelementptr inbounds nuw %struct.avifTransferCharacteristicsTable, ptr %13, i32 0, i32 0
  %15 = load i16, ptr %14, align 8
  %16 = zext i16 %15 to i32
  %17 = load i16, ptr %3, align 2
  %18 = zext i16 %17 to i32
  %19 = icmp eq i32 %16, %18
  br i1 %19, label %20, label %24

20:                                               ; preds = %9
  %21 = load ptr, ptr %5, align 8
  %22 = getelementptr inbounds nuw %struct.avifTransferCharacteristicsTable, ptr %21, i32 0, i32 3
  %23 = load ptr, ptr %22, align 8
  store ptr %23, ptr %2, align 8
  br label %29

24:                                               ; preds = %9
  br label %25

25:                                               ; preds = %24
  %26 = load i32, ptr %4, align 4
  %27 = add nsw i32 %26, 1
  store i32 %27, ptr %4, align 4
  br label %6, !llvm.loop !9

28:                                               ; preds = %6
  store ptr @avifToGamma709, ptr %2, align 8
  br label %29

29:                                               ; preds = %28, %20
  %30 = load ptr, ptr %2, align 8
  ret ptr %30
}